target datalayout = "e-m:e-p270:32:32-p271:32:32-p272:64:64-i64:64-i128:128-f80:128-n8:16:32:64-S128"
target triple = "x86_64-pc-linux-gnu"

%"class.std::__cxx11::basic_string" = type { %"struct.std::__cxx11::basic_string<char>::_Alloc_hider", i64, %union.anon }
%"struct.std::__cxx11::basic_string<char>::_Alloc_hider" = type { ptr }
%union.anon = type { i64, [8 x i8] }
%"class.std::allocator" = type { i8 }
%"class.cv::Mat" = type { i32, i32, i32, i32, ptr, ptr, ptr, ptr, ptr, ptr, %"struct.cv::MatSize", %"struct.cv::MatStep" }
%"struct.cv::MatSize" = type { ptr }
%"struct.cv::MatStep" = type { ptr, [2 x i64] }

@.str.1 = private unnamed_addr constant [119 x i8] c"generated/home/dtcxzyw/WorkSpace/Projects/compilers/llvm-opt-benchmark/bench/opencv/opencv/modules/core/src/arithm.cpp\00", align 1
@.str.34 = private unnamed_addr constant [51 x i8] c"src1.size == dst.size && src1.type() == dst.type()\00", align 1
@__func__.cvMax = private unnamed_addr constant [6 x i8] c"cvMax\00", align 1

; Function Attrs: mustprogress nounwind uwtable
define linkonce_odr hidden noundef i32 @_ZNK2cv3Mat4typeEv(ptr noundef nonnull align 8 dereferenceable(96) %0) #2 comdat align 2 {
  %2 = alloca ptr, align 8
  store ptr %0, ptr %2, align 8
  %3 = load ptr, ptr %2, align 8
  %4 = getelementptr inbounds %"class.cv::Mat", ptr %3, i32 0, i32 0
  %5 = load i32, ptr %4, align 8
  %6 = and i32 %5, 4095
  ret i32 %6
}

; Function Attrs: mustprogress uwtable
define void @cvMax(ptr noundef %0, ptr noundef %1, ptr noundef %2) #0 personality ptr @__gxx_personality_v0 {
  %4 = alloca ptr, align 8
  %5 = alloca ptr, align 8
  %6 = alloca ptr, align 8
  %7 = alloca %"class.cv::Mat", align 8
  %8 = alloca %"class.cv::Mat", align 8
  %9 = alloca ptr, align 8
  %10 = alloca i32, align 4
  %11 = alloca %"class.std::__cxx11::basic_string", align 8
  %12 = alloca %"class.std::allocator", align 1
  %13 = alloca %"class.cv::Mat", align 8
  store ptr %0, ptr %4, align 8
  store ptr %1, ptr %5, align 8
  store ptr %2, ptr %6, align 8
  %14 = load ptr, ptr %4, align 8
  call void @_ZN2cv10cvarrToMatEPKvbbiPNS_10AutoBufferIdLm136EEE(ptr dead_on_unwind writable sret(%"class.cv::Mat") align 8 %7, ptr noundef %14, i1 noundef zeroext false, i1 noundef zeroext true, i32 noundef 0, ptr noundef null)
  %15 = load ptr, ptr %6, align 8
  invoke void @_ZN2cv10cvarrToMatEPKvbbiPNS_10AutoBufferIdLm136EEE(ptr dead_on_unwind writable sret(%"class.cv::Mat") align 8 %8, ptr noundef %15, i1 noundef zeroext false, i1 noundef zeroext true, i32 noundef 0, ptr noundef null)
          to label %16 unwind label %28

16:                                               ; preds = %3
  br label %17

17:                                               ; preds = %16
  %18 = getelementptr inbounds %"class.cv::Mat", ptr %7, i32 0, i32 10
  %19 = getelementptr inbounds %"class.cv::Mat", ptr %8, i32 0, i32 10
  %20 = call noundef zeroext i1 @_ZNK2cv7MatSizeeqERKS0_(ptr noundef nonnull align 8 dereferenceable(8) %18, ptr noundef nonnull align 8 dereferenceable(8) %19) #13
  br i1 %20, label %21, label %36

21:                                               ; preds = %17
  %22 = invoke noundef i32 @_ZNK2cv3Mat4typeEv(ptr noundef nonnull align 8 dereferenceable(96) %7)
          to label %23 unwind label %32

23:                                               ; preds = %21
  %24 = invoke noundef i32 @_ZNK2cv3Mat4typeEv(ptr noundef nonnull align 8 dereferenceable(96) %8)
          to label %25 unwind label %32

25:                                               ; preds = %23
  %26 = icmp eq i32 %22, %24
  br i1 %26, label %27, label %36

27:                                               ; preds = %25
  br label %48

28:                                               ; preds = %3
  %29 = landingpad { ptr, i32 }
          cleanup
  %30 = extractvalue { ptr, i32 } %29, 0
  store ptr %30, ptr %9, align 8
  %31 = extractvalue { ptr, i32 } %29, 1
  store i32 %31, ptr %10, align 4
  br label %59

32:                                               ; preds = %50, %23, %21
  %33 = landingpad { ptr, i32 }
          cleanup
  %34 = extractvalue { ptr, i32 } %33, 0
  store ptr %34, ptr %9, align 8
  %35 = extractvalue { ptr, i32 } %33, 1
  store i32 %35, ptr %10, align 4
  br label %58

36:                                               ; preds = %25, %17
  call void @_ZNSaIcEC1Ev(ptr noundef nonnull align 1 dereferenceable(1) %12) #13
  invoke void @_ZNSt7__cxx1112basic_stringIcSt11char_traitsIcESaIcEEC1EPKcRKS3_(ptr noundef nonnull align 8 dereferenceable(32) %11, ptr noundef @.str.34, ptr noundef nonnull align 1 dereferenceable(1) %12)
          to label %37 unwind label %39

37:                                               ; preds = %36
  invoke void @_ZN2cv5errorEiRKNSt7__cxx1112basic_stringIcSt11char_traitsIcESaIcEEEPKcS9_i(i32 noundef -215, ptr noundef nonnull align 8 dereferenceable(32) %11, ptr noundef @__func__.cvMax, ptr noundef @.str.1, i32 noundef 2209) #14
          to label %38 unwind label %43

38:                                               ; preds = %37
  unreachable

39:                                               ; preds = %36
  %40 = landingpad { ptr, i32 }
          cleanup
  %41 = extractvalue { ptr, i32 } %40, 0
  store ptr %41, ptr %9, align 8
  %42 = extractvalue { ptr, i32 } %40, 1
  store i32 %42, ptr %10, align 4
  br label %47

43:                                               ; preds = %37
  %44 = landingpad { ptr, i32 }
          cleanup
  %45 = extractvalue { ptr, i32 } %44, 0
  store ptr %45, ptr %9, align 8
  %46 = extractvalue { ptr, i32 } %44, 1
  store i32 %46, ptr %10, align 4
  call void @_ZNSt7__cxx1112basic_stringIcSt11char_traitsIcESaIcEED1Ev(ptr noundef nonnull align 8 dereferenceable(32) %11) #13
  br label %47

47:                                               ; preds = %43, %39
  call void @_ZNSaIcED1Ev(ptr noundef nonnull align 1 dereferenceable(1) %12) #13
  br label %58

48:                                               ; preds = %27
  br label %49

49:                                               ; preds = %48
  br label %50

50:                                               ; preds = %49
  %51 = load ptr, ptr %5, align 8
  invoke void @_ZN2cv10cvarrToMatEPKvbbiPNS_10AutoBufferIdLm136EEE(ptr dead_on_unwind writable sret(%"class.cv::Mat") align 8 %13, ptr noundef %51, i1 noundef zeroext false, i1 noundef zeroext true, i32 noundef 0, ptr noundef null)
          to label %52 unwind label %32

52:                                               ; preds = %50
  invoke void @_ZN2cv3maxERKNS_3MatES2_RS0_(ptr noundef nonnull align 8 dereferenceable(96) %7, ptr noundef nonnull align 8 dereferenceable(96) %13, ptr noundef nonnull align 8 dereferenceable(96) %8)
          to label %53 unwind label %54

53:                                               ; preds = %52
  call void @_ZN2cv3MatD1Ev(ptr noundef nonnull align 8 dereferenceable(96) %13) #13
  call void @_ZN2cv3MatD1Ev(ptr noundef nonnull align 8 dereferenceable(96) %8) #13
  call void @_ZN2cv3MatD1Ev(ptr noundef nonnull align 8 dereferenceable(96) %7) #13
  ret void

54:                                               ; preds = %52
  %55 = landingpad { ptr, i32 }
          cleanup
  %56 = extractvalue { ptr, i32 } %55, 0
  store ptr %56, ptr %9, align 8
  %57 = extractvalue { ptr, i32 } %55, 1
  store i32 %57, ptr %10, align 4
  call void @_ZN2cv3MatD1Ev(ptr noundef nonnull align 8 dereferenceable(96) %13) #13
  br label %58

58:                                               ; preds = %54, %47, %32
  call void @_ZN2cv3MatD1Ev(ptr noundef nonnull align 8 dereferenceable(96) %8) #13
  br label %59

59:                                               ; preds = %58, %28
  call void @_ZN2cv3MatD1Ev(ptr noundef nonnull align 8 dereferenceable(96) %7) #13
  br label %60

60:                                               ; preds = %59
  %61 = load ptr, ptr %9, align 8
  %62 = load i32, ptr %10, align 4
  %63 = insertvalue { ptr, i32 } poison, ptr %61, 0
  %64 = insertvalue { ptr, i32 } %63, i32 %62, 1
  resume { ptr, i32 } %64
}